; Function Attrs: mustprogress nounwind uwtable
define internal void @"_ZNSt17_Function_handlerIFN4llvm13ConstantRangeERKS1_S3_EZNS0_17LazyValueInfoImpl23solveBlockValueBinaryOpEPNS0_14BinaryOperatorEPNS0_10BasicBlockEE3$_0E9_M_invokeERKSt9_Any_dataS3_S3_"(ptr dead_on_unwind noalias writable sret(%"class.llvm::ConstantRange") align 8 %0, ptr nocapture noundef nonnull readonly align 8 dereferenceable(16) %1, ptr noundef nonnull align 8 dereferenceable(32) %2, ptr noundef nonnull align 8 dereferenceable(32) %3) #0 align 2 {
  %.val = load ptr, ptr %1, align 8
  %5 = getelementptr inbounds i8, ptr %1, i64 8
  %.val3 = load i32, ptr %5, align 8
  %.val.val = load i8, ptr %.val, align 8
  %6 = zext i8 %.val.val to i32
  %7 = add nsw i32 %6, -29
  tail call void @_ZNK4llvm13ConstantRange19overflowingBinaryOpENS_11Instruction9BinaryOpsERKS0_j(ptr dead_on_unwind writable sret(%"class.llvm::ConstantRange") align 8 %0, ptr noundef nonnull align 8 dereferenceable(32) %2, i32 noundef %7, ptr noundef nonnull align 8 dereferenceable(32) %3, i32 noundef %.val3) #19
  ret void
}